target datalayout = "e-m:e-p270:32:32-p271:32:32-p272:64:64-i64:64-i128:128-f80:128-n8:16:32:64-S128"
target triple = "x86_64-pc-linux-gnu"

; Function Attrs: nounwind uwtable
define internal zeroext i8 @stop(ptr noundef %0, ptr noundef %1) #0 {
  %3 = alloca i8, align 1
  %4 = alloca ptr, align 8
  %5 = alloca ptr, align 8
  %6 = alloca i32, align 4
  %7 = alloca ptr, align 8
  %8 = alloca ptr, align 8
  %9 = alloca ptr, align 8
  store ptr %0, ptr %4, align 8
  store ptr %1, ptr %5, align 8
  %10 = call ptr @getEnv()
  store ptr %10, ptr %9, align 8
  %11 = load ptr, ptr %9, align 8
  %12 = load ptr, ptr %4, align 8
  %13 = call ptr @inStream_readThreadRef(ptr noundef %11, ptr noundef %12)
  store ptr %13, ptr %7, align 8
  %14 = load ptr, ptr %4, align 8
  %15 = call zeroext i16 @inStream_error(ptr noundef %14)
  %16 = icmp ne i16 %15, 0
  br i1 %16, label %17, label %18

17:                                               ; preds = %2
  store i8 1, ptr %3, align 1
  br label %43

18:                                               ; preds = %2
  %19 = load ptr, ptr %9, align 8
  %20 = load ptr, ptr %4, align 8
  %21 = call ptr @inStream_readObjectRef(ptr noundef %19, ptr noundef %20)
  store ptr %21, ptr %8, align 8
  %22 = load ptr, ptr %4, align 8
  %23 = call zeroext i16 @inStream_error(ptr noundef %22)
  %24 = icmp ne i16 %23, 0
  br i1 %24, label %25, label %26

25:                                               ; preds = %18
  store i8 1, ptr %3, align 1
  br label %43

26:                                               ; preds = %18
  %27 = load ptr, ptr %7, align 8
  %28 = call zeroext i8 @threadControl_isDebugThread(ptr noundef %27)
  %29 = icmp ne i8 %28, 0
  br i1 %29, label %30, label %32

30:                                               ; preds = %26
  %31 = load ptr, ptr %5, align 8
  call void @outStream_setError(ptr noundef %31, i16 noundef zeroext 10)
  store i8 1, ptr %3, align 1
  br label %43

32:                                               ; preds = %26
  %33 = load ptr, ptr %7, align 8
  %34 = load ptr, ptr %8, align 8
  %35 = call i32 @threadControl_stop(ptr noundef %33, ptr noundef %34)
  store i32 %35, ptr %6, align 4
  %36 = load i32, ptr %6, align 4
  %37 = icmp ne i32 %36, 0
  br i1 %37, label %38, label %42

38:                                               ; preds = %32
  %39 = load ptr, ptr %5, align 8
  %40 = load i32, ptr %6, align 4
  %41 = call zeroext i16 @map2jdwpError(i32 noundef %40)
  call void @outStream_setError(ptr noundef %39, i16 noundef zeroext %41)
  br label %42

42:                                               ; preds = %38, %32
  store i8 1, ptr %3, align 1
  br label %43

43:                                               ; preds = %42, %30, %25, %17
  %44 = load i8, ptr %3, align 1
  ret i8 %44
}