; Function Attrs: nounwind uwtable
define internal noundef zeroext i8 @stop(ptr noundef %0, ptr noundef %1) #0 {
  %3 = tail call ptr @getEnv() #4
  %4 = tail call ptr @inStream_readThreadRef(ptr noundef %3, ptr noundef %0) #4
  %5 = tail call zeroext i16 @inStream_error(ptr noundef %0) #4
  %.not = icmp eq i16 %5, 0
  br i1 %.not, label %6, label %15

6:                                                ; preds = %2
  %7 = tail call ptr @inStream_readObjectRef(ptr noundef %3, ptr noundef %0) #4
  %8 = tail call zeroext i16 @inStream_error(ptr noundef %0) #4
  %.not13 = icmp eq i16 %8, 0
  br i1 %.not13, label %9, label %15

9:                                                ; preds = %6
  %10 = tail call zeroext i8 @threadControl_isDebugThread(ptr noundef %4) #4
  %.not14 = icmp eq i8 %10, 0
  br i1 %.not14, label %11, label %.sink.split

11:                                               ; preds = %9
  %12 = tail call i32 @threadControl_stop(ptr noundef %4, ptr noundef %7) #4
  %.not15 = icmp eq i32 %12, 0
  br i1 %.not15, label %15, label %13

13:                                               ; preds = %11
  %14 = tail call zeroext i16 @map2jdwpError(i32 noundef %12) #4
  br label %.sink.split

.sink.split:                                      ; preds = %9, %13
  %.sink = phi i16 [ %14, %13 ], [ 10, %9 ]
  tail call void @outStream_setError(ptr noundef %1, i16 noundef zeroext %.sink) #4
  br label %15

15:                                               ; preds = %.sink.split, %11, %6, %2
  ret i8 1
}